target datalayout = "e-m:e-p270:32:32-p271:32:32-p272:64:64-i64:64-i128:128-f80:128-n8:16:32:64-S128"
target triple = "x86_64-pc-linux-gnu"

; Function Attrs: nounwind uwtable
define i32 @Gia_ManMuxTree_rec(ptr noundef %0, ptr noundef %1, i32 noundef %2, ptr noundef %3) #0 {
  %5 = alloca i32, align 4
  %6 = alloca ptr, align 8
  %7 = alloca ptr, align 8
  %8 = alloca i32, align 4
  %9 = alloca ptr, align 8
  %10 = alloca i32, align 4
  %11 = alloca i32, align 4
  %12 = alloca i32, align 4
  store ptr %0, ptr %6, align 8, !tbaa !3
  store ptr %1, ptr %7, align 8, !tbaa !10
  store i32 %2, ptr %8, align 4, !tbaa !8
  store ptr %3, ptr %9, align 8, !tbaa !10
  call void @llvm.lifetime.start.p0(i64 4, ptr %10) #12
  call void @llvm.lifetime.start.p0(i64 4, ptr %11) #12
  %13 = load i32, ptr %8, align 4, !tbaa !8
  %14 = icmp eq i32 %13, 0
  br i1 %14, label %15, label %19

15:                                               ; preds = %4
  %16 = load ptr, ptr %9, align 8, !tbaa !10
  %17 = getelementptr inbounds i32, ptr %16, i64 0
  %18 = load i32, ptr %17, align 4, !tbaa !8
  store i32 %18, ptr %5, align 4
  store i32 1, ptr %12, align 4
  br label %47

19:                                               ; preds = %4
  %20 = load ptr, ptr %6, align 8, !tbaa !3
  %21 = load ptr, ptr %7, align 8, !tbaa !10
  %22 = load i32, ptr %8, align 4, !tbaa !8
  %23 = sub nsw i32 %22, 1
  %24 = load ptr, ptr %9, align 8, !tbaa !10
  %25 = call i32 @Gia_ManMuxTree_rec(ptr noundef %20, ptr noundef %21, i32 noundef %23, ptr noundef %24)
  store i32 %25, ptr %10, align 4, !tbaa !8
  %26 = load ptr, ptr %6, align 8, !tbaa !3
  %27 = load ptr, ptr %7, align 8, !tbaa !10
  %28 = load i32, ptr %8, align 4, !tbaa !8
  %29 = sub nsw i32 %28, 1
  %30 = load ptr, ptr %9, align 8, !tbaa !10
  %31 = load i32, ptr %8, align 4, !tbaa !8
  %32 = sub nsw i32 %31, 1
  %33 = shl i32 1, %32
  %34 = sext i32 %33 to i64
  %35 = getelementptr inbounds i32, ptr %30, i64 %34
  %36 = call i32 @Gia_ManMuxTree_rec(ptr noundef %26, ptr noundef %27, i32 noundef %29, ptr noundef %35)
  store i32 %36, ptr %11, align 4, !tbaa !8
  %37 = load ptr, ptr %6, align 8, !tbaa !3
  %38 = load ptr, ptr %7, align 8, !tbaa !10
  %39 = load i32, ptr %8, align 4, !tbaa !8
  %40 = sub nsw i32 %39, 1
  %41 = sext i32 %40 to i64
  %42 = getelementptr inbounds i32, ptr %38, i64 %41
  %43 = load i32, ptr %42, align 4, !tbaa !8
  %44 = load i32, ptr %11, align 4, !tbaa !8
  %45 = load i32, ptr %10, align 4, !tbaa !8
  %46 = call i32 @Gia_ManHashMux(ptr noundef %37, i32 noundef %43, i32 noundef %44, i32 noundef %45)
  store i32 %46, ptr %5, align 4
  store i32 1, ptr %12, align 4
  br label %47

47:                                               ; preds = %19, %15
  call void @llvm.lifetime.end.p0(i64 4, ptr %11) #12
  call void @llvm.lifetime.end.p0(i64 4, ptr %10) #12
  %48 = load i32, ptr %5, align 4
  ret i32 %48
}