; Function Attrs: nounwind uwtable
define i32 @Gia_ManMuxTree_rec(ptr noundef %0, ptr noundef %1, i32 noundef %2, ptr noundef %3) local_unnamed_addr #2 {
  %5 = icmp eq i32 %2, 0
  br i1 %5, label %common.ret, label %7

common.ret:                                       ; preds = %4
  %6 = load i32, ptr %3, align 4, !tbaa !11
  br label %common.ret17

common.ret17:                                     ; preds = %7, %common.ret
  %common.ret17.op = phi i32 [ %6, %common.ret ], [ %17, %7 ]
  ret i32 %common.ret17.op

7:                                                ; preds = %4
  %8 = add nsw i32 %2, -1
  %9 = tail call i32 @Gia_ManMuxTree_rec(ptr noundef %0, ptr noundef %1, i32 noundef %8, ptr noundef %3)
  %10 = shl nuw i32 1, %8
  %11 = sext i32 %10 to i64
  %12 = getelementptr inbounds i32, ptr %3, i64 %11
  %13 = tail call i32 @Gia_ManMuxTree_rec(ptr noundef %0, ptr noundef %1, i32 noundef %8, ptr noundef nonnull %12)
  %14 = sext i32 %8 to i64
  %15 = getelementptr inbounds i32, ptr %1, i64 %14
  %16 = load i32, ptr %15, align 4, !tbaa !11
  %17 = tail call i32 @Gia_ManHashMux(ptr noundef %0, i32 noundef %16, i32 noundef %13, i32 noundef %9)
  br label %common.ret17
}